(lp0
S'H_brats_tcia_pat478_0001.in'
p1
aS'L_brats_tcia_pat175_0001.in'
p2
aS'L_brats_tcia_pat408_0001.in'
p3
aS'H_brats_tcia_pat338_0001.in'
p4
aS'L_brats_tcia_pat449_0001.in'
p5
aS'H_brats_tcia_pat378_0001.in'
p6
aS'H_brats_tcia_pat138_0001.in'
p7
aS'L_brats_tcia_pat103_0001.in'
p8
aS'L_brats_tcia_pat282_0001.in'
p9
aS'L_brats_tcia_pat177_0001.in'
p10
aS'H_brats_tcia_pat171_0780.in'
p11
aS'L_brats_tcia_pat202_0001.in'
p12
aS'H_brats_tcia_pat171_0387.in'
p13
aS'L_brats_tcia_pat346_0001.in'
p14
aS'L_brats_tcia_pat255_0001.in'
p15
aS'H_brats_tcia_pat203_0001.in'
p16
aS'H_brats_tcia_pat150_0001.in'
p17
aS'H_brats_tcia_pat290_0412.in'
p18
aS'H_brats_tcia_pat164_0001.in'
p19
aS'H_brats_tcia_pat399_0479.in'
p20
aS'L_brats_tcia_pat330_0001.in'
p21
aS'H_brats_tcia_pat258_0001.in'
p22
aS'L_brats_tcia_pat312_0001.in'
p23
aS'H_brats_tcia_pat171_0001.in'
p24
aS'H_brats_2013_pat0014_1.in'
p25
aS'L_brats_tcia_pat298_0001.in'
p26
aS'H_brats_tcia_pat242_0001.in'
p27
aS'H_brats_tcia_pat309_0462.in'
p28
aS'H_brats_tcia_pat370_0383.in'
p29
aS'H_brats_tcia_pat463_0001.in'
p30
aS'H_brats_tcia_pat439_0263.in'
p31
aS'H_brats_tcia_pat396_0217.in'
p32
aS'H_brats_tcia_pat391_0002.in'
p33
aS'H_brats_tcia_pat372_0001.in'
p34
aS'H_brats_tcia_pat468_0001.in'
p35
aS'L_brats_tcia_pat470_0001.in'
p36
aS'H_brats_tcia_pat374_1627.in'
p37
aS'L_brats_tcia_pat451_0001.in'
p38
aS'L_brats_2013_pat0008_1.in'
p39
aS'L_brats_tcia_pat249_0001.in'
p40
aS'H_brats_tcia_pat192_0001.in'
p41
aS'L_brats_tcia_pat130_0001.in'
p42
aS'H_brats_tcia_pat226_0090.in'
p43
aS'L_brats_tcia_pat466_0001.in'
p44
aS'H_brats_2013_pat0009_1.in'
p45
aS'L_brats_tcia_pat413_0001.in'
p46
aS'H_brats_tcia_pat222_0122.in'
p47
aS'L_brats_tcia_pat241_0001.in'
p48
aS'H_brats_tcia_pat190_0001.in'
p49
aS'L_brats_2013_pat0002_1.in'
p50
aS'H_brats_tcia_pat113_0001.in'
p51
aS'H_brats_tcia_pat474_0001.in'
p52
aS'H_brats_tcia_pat412_0001.in'
p53
aS'H_brats_tcia_pat399_0369.in'
p54
aS'H_brats_tcia_pat230_0511.in'
p55
aS'L_brats_tcia_pat261_0001.in'
p56
aS'L_brats_tcia_pat351_0001.in'
p57
aS'L_brats_2013_pat0004_1.in'
p58
aS'H_brats_tcia_pat471_0001.in'
p59
aS'L_brats_tcia_pat152_0001.in'
p60
aS'L_brats_2013_pat0001_1.in'
p61
aS'L_brats_tcia_pat420_0001.in'
p62
aS'H_brats_tcia_pat180_0001.in'
p63
aS'H_brats_tcia_pat121_0001.in'
p64
aS'H_brats_2013_pat0025_1.in'
p65
aS'H_brats_2013_pat0008_1.in'
p66
aS'L_brats_tcia_pat299_0001.in'
p67
aS'H_brats_tcia_pat374_1426.in'
p68
aS'L_brats_tcia_pat402_0001.in'
p69
aS'L_brats_tcia_pat490_0001.in'
p70
aS'H_brats_tcia_pat257_0001.in'
p71
aS'H_brats_tcia_pat491_0001.in'
p72
aS'L_brats_tcia_pat254_0001.in'
p73
aS'L_brats_2013_pat0015_1.in'
p74
aS'H_brats_tcia_pat230_0481.in'
p75
aS'L_brats_tcia_pat428_0001.in'
p76
aS'H_brats_tcia_pat280_0003.in'
p77
aS'H_brats_2013_pat0026_1.in'
p78
aS'L_brats_tcia_pat276_0001.in'
p79
aS'H_brats_tcia_pat309_0243.in'
p80
aS'H_brats_tcia_pat226_0001.in'
p81
aS'H_brats_tcia_pat374_0801.in'
p82
aS'L_brats_tcia_pat393_0001.in'
p83
aS'H_brats_tcia_pat260_0075.in'
p84
aS'H_brats_tcia_pat274_0001.in'
p85
aS'L_brats_tcia_pat410_0001.in'
p86
aS'H_brats_tcia_pat370_1354.in'
p87
aS'H_brats_tcia_pat230_0637.in'
p88
aS'L_brats_tcia_pat483_0001.in'
p89
aS'L_brats_2013_pat0006_1.in'
p90
aS'H_brats_tcia_pat396_0001.in'
p91
aS'H_brats_tcia_pat432_0001.in'
p92
aS'H_brats_tcia_pat135_0001.in'
p93
aS'H_brats_tcia_pat417_0001.in'
p94
aS'H_brats_tcia_pat105_0001.in'
p95
aS'H_brats_tcia_pat120_0001.in'
p96
aS'H_brats_tcia_pat283_0001.in'
p97
aS'H_brats_tcia_pat193_0002.in'
p98
aS'H_brats_tcia_pat425_0001.in'
p99
aS'H_brats_tcia_pat319_0001.in'
p100
aS'H_brats_tcia_pat396_0294.in'
p101
aS'L_brats_tcia_pat307_0001.in'
p102
aS'L_brats_tcia_pat354_0001.in'
p103
aS'L_brats_tcia_pat141_0001.in'
p104
aS'H_brats_tcia_pat332_0001.in'
p105
aS'H_brats_tcia_pat444_0038.in'
p106
aS'H_brats_tcia_pat370_1470.in'
p107
aS'L_brats_2013_pat0012_1.in'
p108
aS'L_brats_tcia_pat266_0001.in'
p109
aS'L_brats_tcia_pat462_0001.in'
p110
aS'L_brats_tcia_pat442_0001.in'
p111
a.