(lp0
S'H_brats_tcia_pat478_0001.in'
p1
aS'L_brats_tcia_pat101_0001.in'
p2
aS'H_brats_tcia_pat417_0019.in'
p3
aS'H_brats_tcia_pat409_0001.in'
p4
aS'H_brats_tcia_pat230_0199.in'
p5
aS'L_brats_tcia_pat103_0001.in'
p6
aS'H_brats_tcia_pat165_0001.in'
p7
aS'L_brats_tcia_pat177_0001.in'
p8
aS'L_brats_tcia_pat202_0001.in'
p9
aS'H_brats_2013_pat0012_1.in'
p10
aS'L_brats_tcia_pat346_0001.in'
p11
aS'L_brats_tcia_pat255_0001.in'
p12
aS'H_brats_tcia_pat392_0340.in'
p13
aS'H_brats_tcia_pat399_0217.in'
p14
aS'H_brats_tcia_pat258_0001.in'
p15
aS'L_brats_tcia_pat312_0001.in'
p16
aS'L_brats_tcia_pat298_0001.in'
p17
aS'H_brats_tcia_pat231_0001.in'
p18
aS'H_brats_tcia_pat361_0001.in'
p19
aS'L_brats_tcia_pat493_0001.in'
p20
aS'H_brats_tcia_pat391_0002.in'
p21
aS'H_brats_tcia_pat374_0909.in'
p22
aS'H_brats_2013_pat0013_1.in'
p23
aS'L_brats_tcia_pat470_0001.in'
p24
aS'H_brats_tcia_pat260_0129.in'
p25
aS'H_brats_tcia_pat401_0001.in'
p26
aS'L_brats_tcia_pat451_0001.in'
p27
aS'L_brats_2013_pat0008_1.in'
p28
aS'H_brats_tcia_pat117_0001.in'
p29
aS'H_brats_tcia_pat455_0001.in'
p30
aS'L_brats_tcia_pat249_0001.in'
p31
aS'H_brats_tcia_pat171_0618.in'
p32
aS'L_brats_tcia_pat130_0001.in'
p33
aS'H_brats_tcia_pat444_0033.in'
p34
aS'H_brats_tcia_pat394_0001.in'
p35
aS'H_brats_tcia_pat171_1231.in'
p36
aS'L_brats_tcia_pat466_0001.in'
p37
aS'H_brats_2013_pat0009_1.in'
p38
aS'L_brats_tcia_pat387_0001.in'
p39
aS'H_brats_tcia_pat222_0122.in'
p40
aS'H_brats_tcia_pat290_0669.in'
p41
aS'L_brats_tcia_pat241_0001.in'
p42
aS'L_brats_2013_pat0002_1.in'
p43
aS'H_brats_tcia_pat429_0001.in'
p44
aS'H_brats_tcia_pat309_0320.in'
p45
aS'H_brats_tcia_pat399_0595.in'
p46
aS'H_brats_tcia_pat411_0001.in'
p47
aS'H_brats_tcia_pat370_1126.in'
p48
aS'L_brats_tcia_pat261_0001.in'
p49
aS'L_brats_2013_pat0004_1.in'
p50
aS'H_brats_tcia_pat471_0001.in'
p51
aS'H_brats_tcia_pat374_0001.in'
p52
aS'L_brats_tcia_pat152_0001.in'
p53
aS'H_brats_tcia_pat183_0001.in'
p54
aS'L_brats_2013_pat0001_1.in'
p55
aS'H_brats_tcia_pat153_0109.in'
p56
aS'H_brats_tcia_pat147_0001.in'
p57
aS'H_brats_tcia_pat121_0001.in'
p58
aS'H_brats_tcia_pat436_0001.in'
p59
aS'H_brats_2013_pat0025_1.in'
p60
aS'H_brats_2013_pat0015_1.in'
p61
aS'L_brats_tcia_pat299_0001.in'
p62
aS'H_brats_tcia_pat235_0001.in'
p63
aS'L_brats_2013_pat0011_1.in'
p64
aS'L_brats_tcia_pat490_0001.in'
p65
aS'H_brats_tcia_pat257_0001.in'
p66
aS'H_brats_tcia_pat200_0210.in'
p67
aS'H_brats_tcia_pat370_0001.in'
p68
aS'H_brats_tcia_pat300_0001.in'
p69
aS'L_brats_2013_pat0015_1.in'
p70
aS'L_brats_tcia_pat428_0001.in'
p71
aS'H_brats_tcia_pat153_0277.in'
p72
aS'H_brats_tcia_pat280_0003.in'
p73
aS'H_brats_2013_pat0026_1.in'
p74
aS'H_brats_tcia_pat184_0001.in'
p75
aS'H_brats_tcia_pat198_0001.in'
p76
aS'H_brats_2013_pat0005_1.in'
p77
aS'H_brats_2013_pat0007_1.in'
p78
aS'L_brats_tcia_pat276_0001.in'
p79
aS'H_brats_tcia_pat309_0243.in'
p80
aS'H_brats_tcia_pat178_0002.in'
p81
aS'H_brats_tcia_pat226_0001.in'
p82
aS'L_brats_tcia_pat393_0001.in'
p83
aS'L_brats_tcia_pat325_0001.in'
p84
aS'H_brats_tcia_pat274_0001.in'
p85
aS'L_brats_tcia_pat410_0001.in'
p86
aS'H_brats_tcia_pat171_1126.in'
p87
aS'H_brats_tcia_pat499_0001.in'
p88
aS'H_brats_2013_pat0010_1.in'
p89
aS'L_brats_tcia_pat483_0001.in'
p90
aS'L_brats_2013_pat0006_1.in'
p91
aS'H_brats_tcia_pat260_0244.in'
p92
aS'H_brats_tcia_pat417_0001.in'
p93
aS'H_brats_tcia_pat399_0417.in'
p94
aS'H_brats_tcia_pat120_0001.in'
p95
aS'H_brats_tcia_pat374_1165.in'
p96
aS'H_brats_tcia_pat425_0001.in'
p97
aS'H_brats_tcia_pat133_0001.in'
p98
aS'L_brats_tcia_pat307_0001.in'
p99
aS'H_brats_tcia_pat124_0003.in'
p100
aS'H_brats_tcia_pat460_0001.in'
p101
aS'L_brats_2013_pat0014_1.in'
p102
aS'L_brats_tcia_pat141_0001.in'
p103
aS'L_brats_tcia_pat109_0001.in'
p104
aS'L_brats_2013_pat0012_1.in'
p105
aS'H_brats_tcia_pat162_0001.in'
p106
aS'L_brats_tcia_pat266_0001.in'
p107
aS'L_brats_tcia_pat462_0001.in'
p108
a.