(lp0
S'H_brats_tcia_pat118_0001.in'
p1
aS'L_brats_tcia_pat101_0001.in'
p2
aS'L_brats_tcia_pat175_0001.in'
p3
aS'L_brats_tcia_pat408_0001.in'
p4
aS'H_brats_tcia_pat444_0104.in'
p5
aS'L_brats_tcia_pat449_0001.in'
p6
aS'L_brats_tcia_pat103_0001.in'
p7
aS'L_brats_tcia_pat480_0001.in'
p8
aS'L_brats_tcia_pat282_0001.in'
p9
aS'L_brats_tcia_pat177_0001.in'
p10
aS'L_brats_tcia_pat202_0001.in'
p11
aS'H_brats_tcia_pat447_0122.in'
p12
aS'L_brats_tcia_pat346_0001.in'
p13
aS'L_brats_tcia_pat255_0001.in'
p14
aS'H_brats_tcia_pat437_0001.in'
p15
aS'H_brats_tcia_pat399_0156.in'
p16
aS'L_brats_tcia_pat330_0001.in'
p17
aS'H_brats_tcia_pat260_0317.in'
p18
aS'L_brats_tcia_pat312_0001.in'
p19
aS'L_brats_tcia_pat298_0001.in'
p20
aS'H_brats_2013_pat0006_1.in'
p21
aS'H_brats_tcia_pat377_0001.in'
p22
aS'H_brats_tcia_pat448_0001.in'
p23
aS'H_brats_tcia_pat361_0001.in'
p24
aS'H_brats_tcia_pat171_0950.in'
p25
aS'H_brats_tcia_pat463_0001.in'
p26
aS'H_brats_tcia_pat396_0217.in'
p27
aS'L_brats_tcia_pat493_0001.in'
p28
aS'H_brats_tcia_pat309_0120.in'
p29
aS'H_brats_tcia_pat447_0313.in'
p30
aS'H_brats_tcia_pat479_0001.in'
p31
aS'H_brats_tcia_pat217_0001.in'
p32
aS'H_brats_tcia_pat401_0001.in'
p33
aS'H_brats_tcia_pat439_0001.in'
p34
aS'L_brats_tcia_pat451_0001.in'
p35
aS'L_brats_2013_pat0013_1.in'
p36
aS'H_brats_tcia_pat117_0001.in'
p37
aS'L_brats_tcia_pat249_0001.in'
p38
aS'L_brats_tcia_pat130_0001.in'
p39
aS'H_brats_tcia_pat335_0001.in'
p40
aS'H_brats_tcia_pat444_0033.in'
p41
aS'H_brats_tcia_pat226_0090.in'
p42
aS'H_brats_tcia_pat230_0710.in'
p43
aS'L_brats_tcia_pat466_0001.in'
p44
aS'H_brats_2013_pat0009_1.in'
p45
aS'L_brats_tcia_pat413_0001.in'
p46
aS'H_brats_tcia_pat321_0001.in'
p47
aS'L_brats_tcia_pat387_0001.in'
p48
aS'H_brats_tcia_pat314_0001.in'
p49
aS'L_brats_tcia_pat241_0001.in'
p50
aS'H_brats_tcia_pat190_0001.in'
p51
aS'H_brats_tcia_pat429_0001.in'
p52
aS'H_brats_tcia_pat370_0569.in'
p53
aS'H_brats_tcia_pat230_0511.in'
p54
aS'L_brats_tcia_pat261_0001.in'
p55
aS'H_brats_tcia_pat309_0001.in'
p56
aS'L_brats_tcia_pat351_0001.in'
p57
aS'L_brats_2013_pat0004_1.in'
p58
aS'L_brats_tcia_pat152_0001.in'
p59
aS'L_brats_2013_pat0001_1.in'
p60
aS'L_brats_tcia_pat420_0001.in'
p61
aS'H_brats_tcia_pat314_0150.in'
p62
aS'H_brats_tcia_pat436_0001.in'
p63
aS'H_brats_tcia_pat260_0152.in'
p64
aS'H_brats_2013_pat0015_1.in'
p65
aS'L_brats_tcia_pat299_0001.in'
p66
aS'L_brats_tcia_pat402_0001.in'
p67
aS'L_brats_tcia_pat490_0001.in'
p68
aS'H_brats_tcia_pat491_0001.in'
p69
aS'H_brats_tcia_pat447_0199.in'
p70
aS'L_brats_tcia_pat254_0001.in'
p71
aS'L_brats_2013_pat0015_1.in'
p72
aS'H_brats_2013_pat0027_1.in'
p73
aS'H_brats_tcia_pat406_0001.in'
p74
aS'H_brats_tcia_pat186_0001.in'
p75
aS'L_brats_tcia_pat428_0001.in'
p76
aS'H_brats_tcia_pat280_0003.in'
p77
aS'H_brats_2013_pat0005_1.in'
p78
aS'L_brats_tcia_pat276_0001.in'
p79
aS'H_brats_tcia_pat178_0002.in'
p80
aS'L_brats_tcia_pat393_0001.in'
p81
aS'L_brats_tcia_pat325_0001.in'
p82
aS'L_brats_tcia_pat410_0001.in'
p83
aS'H_brats_tcia_pat499_0001.in'
p84
aS'H_brats_tcia_pat370_0907.in'
p85
aS'H_brats_tcia_pat218_0001.in'
p86
aS'H_brats_tcia_pat370_1354.in'
p87
aS'H_brats_tcia_pat230_0637.in'
p88
aS'L_brats_tcia_pat483_0001.in'
p89
aS'H_brats_tcia_pat396_0001.in'
p90
aS'H_brats_tcia_pat260_0244.in'
p91
aS'H_brats_tcia_pat432_0001.in'
p92
aS'H_brats_tcia_pat111_0001.in'
p93
aS'H_brats_2013_pat0022_1.in'
p94
aS'H_brats_tcia_pat430_0001.in'
p95
aS'H_brats_tcia_pat399_0417.in'
p96
aS'H_brats_tcia_pat283_0001.in'
p97
aS'H_brats_tcia_pat374_1165.in'
p98
aS'H_brats_tcia_pat419_0001.in'
p99
aS'H_brats_tcia_pat319_0001.in'
p100
aS'L_brats_tcia_pat307_0001.in'
p101
aS'H_brats_tcia_pat124_0003.in'
p102
aS'L_brats_2013_pat0014_1.in'
p103
aS'L_brats_tcia_pat354_0001.in'
p104
aS'H_brats_2013_pat0024_1.in'
p105
aS'L_brats_tcia_pat109_0001.in'
p106
aS'L_brats_2013_pat0012_1.in'
p107
aS'H_brats_2013_pat0003_1.in'
p108
aS'H_brats_tcia_pat162_0001.in'
p109
aS'L_brats_tcia_pat266_0001.in'
p110
aS'L_brats_tcia_pat462_0001.in'
p111
a.