(lp0
S'H_brats_tcia_pat290_0580.in'
p1
aS'H_brats_2013_pat0015_1.in'
p2
aS'H_brats_tcia_pat153_0294.in'
p3
aS'H_brats_tcia_pat226_0001.in'
p4
aS'H_brats_tcia_pat439_0360.in'
p5
aS'H_brats_tcia_pat399_0527.in'
p6
aS'H_brats_tcia_pat399_0595.in'
p7
aS'H_brats_tcia_pat343_0001.in'
p8
aS'H_brats_tcia_pat417_0019.in'
p9
aS'H_brats_tcia_pat374_0801.in'
p10
aS'H_brats_tcia_pat260_0317.in'
p11
aS'H_brats_tcia_pat378_0001.in'
p12
aS'H_brats_tcia_pat183_0001.in'
p13
aS'H_brats_2013_pat0022_1.in'
p14
aS'H_brats_tcia_pat105_0001.in'
p15
aS'H_brats_tcia_pat278_0001.in'
p16
aS'H_brats_tcia_pat193_0002.in'
p17
aS'H_brats_2013_pat0005_1.in'
p18
aS'H_brats_tcia_pat473_0001.in'
p19
aS'H_brats_tcia_pat309_0001.in'
p20
aS'H_brats_2013_pat0014_1.in'
p21
aS'H_brats_2013_pat0009_1.in'
p22
aS'H_brats_tcia_pat274_0001.in'
p23
aS'H_brats_tcia_pat396_0117.in'
p24
aS'H_brats_tcia_pat432_0001.in'
p25
aS'H_brats_tcia_pat430_0001.in'
p26
aS'H_brats_tcia_pat203_0001.in'
p27
aS'H_brats_tcia_pat399_0217.in'
p28
aS'H_brats_tcia_pat447_0122.in'
p29
aS'H_brats_tcia_pat399_0290.in'
p30
aS'H_brats_tcia_pat425_0001.in'
p31
aS'H_brats_tcia_pat396_0139.in'
p32
aS'H_brats_tcia_pat165_0001.in'
p33
aS'H_brats_2013_pat0011_1.in'
p34
aS'H_brats_tcia_pat332_0001.in'
p35
aS'H_brats_tcia_pat242_0001.in'
p36
aS'H_brats_tcia_pat296_0001.in'
p37
aS'H_brats_tcia_pat230_0511.in'
p38
aS'H_brats_tcia_pat133_0001.in'
p39
aS'H_brats_2013_pat0013_1.in'
p40
aS'H_brats_tcia_pat319_0001.in'
p41
aS'H_brats_tcia_pat499_0001.in'
p42
aS'H_brats_tcia_pat162_0001.in'
p43
aS'H_brats_tcia_pat399_0002.in'
p44
aS'H_brats_tcia_pat399_0815.in'
p45
aS'H_brats_tcia_pat230_0199.in'
p46
aS'H_brats_tcia_pat374_0909.in'
p47
aS'H_brats_tcia_pat314_0290.in'
p48
aS'H_brats_tcia_pat199_0001.in'
p49
aS'H_brats_tcia_pat171_1231.in'
p50
aS'H_brats_tcia_pat390_0001.in'
p51
aS'H_brats_tcia_pat171_0618.in'
p52
aS'H_brats_tcia_pat463_0001.in'
p53
aS'H_brats_tcia_pat151_0001.in'
p54
aS'H_brats_tcia_pat331_0001.in'
p55
aS'H_brats_tcia_pat260_0152.in'
p56
aS'H_brats_tcia_pat471_0001.in'
p57
aS'H_brats_tcia_pat328_0001.in'
p58
aS'H_brats_tcia_pat198_0283.in'
p59
aS'H_brats_tcia_pat124_0003.in'
p60
aS'H_brats_tcia_pat211_0001.in'
p61
aS'H_brats_2013_pat0003_1.in'
p62
aS'H_brats_tcia_pat406_0001.in'
p63
aS'H_brats_tcia_pat138_0001.in'
p64
aS'H_brats_tcia_pat222_0304.in'
p65
aS'H_brats_tcia_pat444_0104.in'
p66
aS'H_brats_tcia_pat230_0481.in'
p67
aS'H_brats_tcia_pat208_0001.in'
p68
aS'H_brats_tcia_pat221_0001.in'
p69
aS'H_brats_tcia_pat439_0263.in'
p70
aS'H_brats_tcia_pat491_0001.in'
p71
aS'H_brats_tcia_pat257_0001.in'
p72
aS'H_brats_tcia_pat335_0001.in'
p73
aS'H_brats_tcia_pat396_0105.in'
p74
aS'H_brats_tcia_pat153_0109.in'
p75
aS'H_brats_tcia_pat368_0001.in'
p76
aS'H_brats_tcia_pat230_0637.in'
p77
aS'H_brats_tcia_pat439_0001.in'
p78
aS'H_brats_tcia_pat290_0305.in'
p79
aS'H_brats_tcia_pat314_0016.in'
p80
aS'H_brats_tcia_pat258_0001.in'
p81
aS'H_brats_tcia_pat437_0001.in'
p82
aS'H_brats_tcia_pat150_0001.in'
p83
aS'H_brats_tcia_pat447_0313.in'
p84
aS'H_brats_2013_pat0004_1.in'
p85
aS'H_brats_tcia_pat234_0001.in'
p86
aS'H_brats_tcia_pat198_0001.in'
p87
aS'H_brats_tcia_pat201_0001.in'
p88
aS'H_brats_tcia_pat171_0001.in'
p89
aS'H_brats_tcia_pat419_0001.in'
p90
aS'H_brats_tcia_pat230_0710.in'
p91
aS'H_brats_tcia_pat374_1627.in'
p92
aS'H_brats_tcia_pat370_0001.in'
p93
aS'H_brats_tcia_pat377_0001.in'
p94
aS'H_brats_tcia_pat290_0001.in'
p95
aS'H_brats_2013_pat0006_1.in'
p96
aS'H_brats_tcia_pat111_0001.in'
p97
aS'H_brats_tcia_pat391_0002.in'
p98
aS'H_brats_tcia_pat192_0001.in'
p99
aS'H_brats_tcia_pat153_0277.in'
p100
aS'H_brats_tcia_pat113_0001.in'
p101
aS'H_brats_tcia_pat455_0001.in'
p102
aS'H_brats_2013_pat0012_1.in'
p103
aS'H_brats_tcia_pat429_0001.in'
p104
aS'H_brats_tcia_pat117_0001.in'
p105
aS'H_brats_tcia_pat401_0001.in'
p106
aS'H_brats_tcia_pat300_0001.in'
p107
aS'H_brats_tcia_pat120_0001.in'
p108
aS'H_brats_tcia_pat448_0001.in'
p109
aS'H_brats_tcia_pat149_0001.in'
p110
aS'H_brats_tcia_pat309_0203.in'
p111
aS'H_brats_tcia_pat424_0001.in'
p112
aS'H_brats_tcia_pat396_0001.in'
p113
aS'H_brats_tcia_pat283_0001.in'
p114
aS'H_brats_tcia_pat444_0038.in'
p115
aS'H_brats_tcia_pat374_0557.in'
p116
aS'H_brats_tcia_pat171_0950.in'
p117
aS'H_brats_tcia_pat309_0462.in'
p118
aS'H_brats_tcia_pat231_0001.in'
p119
aS'H_brats_tcia_pat399_0417.in'
p120
aS'H_brats_tcia_pat153_0181.in'
p121
aS'H_brats_tcia_pat460_0001.in'
p122
aS'H_brats_tcia_pat478_0001.in'
p123
aS'H_brats_tcia_pat121_0001.in'
p124
aS'H_brats_tcia_pat186_0001.in'
p125
aS'H_brats_tcia_pat396_0217.in'
p126
aS'H_brats_tcia_pat171_1126.in'
p127
aS'H_brats_tcia_pat309_0120.in'
p128
aS'H_brats_tcia_pat377_0640.in'
p129
aS'H_brats_tcia_pat436_0001.in'
p130
aS'H_brats_tcia_pat374_1426.in'
p131
aS'H_brats_tcia_pat218_0001.in'
p132
aS'H_brats_tcia_pat394_0001.in'
p133
aS'H_brats_tcia_pat235_0001.in'
p134
aS'H_brats_tcia_pat309_0320.in'
p135
aS'H_brats_tcia_pat375_0001.in'
p136
aS'H_brats_tcia_pat309_0243.in'
p137
aS'H_brats_tcia_pat170_0002.in'
p138
aS'H_brats_tcia_pat290_0412.in'
p139
aS'H_brats_tcia_pat153_0002.in'
p140
aS'H_brats_tcia_pat280_0003.in'
p141
aS'H_brats_tcia_pat314_0001.in'
p142
aS'H_brats_tcia_pat179_0001.in'
p143
aS'H_brats_tcia_pat135_0001.in'
p144
aS'H_brats_tcia_pat374_1165.in'
p145
aS'H_brats_2013_pat0024_1.in'
p146
aS'H_brats_tcia_pat370_1354.in'
p147
aS'H_brats_tcia_pat370_0907.in'
p148
aS'H_brats_tcia_pat171_0387.in'
p149
aS'H_brats_tcia_pat260_0244.in'
p150
aS'H_brats_tcia_pat361_0001.in'
p151
aS'H_brats_tcia_pat374_0356.in'
p152
aS'H_brats_tcia_pat417_0001.in'
p153
aS'H_brats_tcia_pat277_0001.in'
p154
aS'H_brats_tcia_pat399_0369.in'
p155
aS'H_brats_tcia_pat314_0150.in'
p156
aS'H_brats_tcia_pat468_0001.in'
p157
aS'H_brats_tcia_pat147_0001.in'
p158
aS'H_brats_tcia_pat411_0001.in'
p159
aS'H_brats_tcia_pat374_0001.in'
p160
aS'H_brats_tcia_pat444_0077.in'
p161
aS'H_brats_tcia_pat338_0001.in'
p162
aS'H_brats_tcia_pat171_0200.in'
p163
aS'H_brats_tcia_pat447_0199.in'
p164
aS'H_brats_tcia_pat396_0176.in'
p165
aS'H_brats_tcia_pat157_0001.in'
p166
aS'H_brats_2013_pat0010_1.in'
p167
aS'H_brats_tcia_pat226_0090.in'
p168
aS'H_brats_tcia_pat178_0002.in'
p169
aS'H_brats_tcia_pat469_0001.in'
p170
aS'H_brats_tcia_pat498_0001.in'
p171
aS'H_brats_tcia_pat444_0033.in'
p172
aS'H_brats_tcia_pat164_0001.in'
p173
aS'H_brats_tcia_pat217_0001.in'
p174
aS'H_brats_tcia_pat372_0001.in'
p175
aS'H_brats_tcia_pat171_0780.in'
p176
aS'H_brats_tcia_pat399_0479.in'
p177
aS'H_brats_tcia_pat153_0165.in'
p178
aS'H_brats_tcia_pat247_0001.in'
p179
aS'L_brats_tcia_pat109_0001.in'
p180
aS'L_brats_tcia_pat254_0001.in'
p181
aS'L_brats_2013_pat0001_1.in'
p182
aS'L_brats_tcia_pat466_0001.in'
p183
aS'L_brats_2013_pat0004_1.in'
p184
aS'L_brats_tcia_pat312_0001.in'
p185
aS'L_brats_tcia_pat413_0001.in'
p186
aS'L_brats_tcia_pat480_0001.in'
p187
aS'L_brats_2013_pat0008_1.in'
p188
aS'L_brats_tcia_pat175_0001.in'
p189
aS'L_brats_tcia_pat101_0001.in'
p190
aS'L_brats_tcia_pat462_0001.in'
p191
aS'L_brats_tcia_pat282_0001.in'
p192
aS'L_brats_tcia_pat420_0001.in'
p193
aS'L_brats_tcia_pat493_0001.in'
p194
aS'L_brats_2013_pat0013_1.in'
p195
aS'L_brats_2013_pat0012_1.in'
p196
aS'L_brats_tcia_pat354_0001.in'
p197
aS'L_brats_tcia_pat330_0001.in'
p198
aS'L_brats_tcia_pat130_0001.in'
p199
aS'L_brats_tcia_pat298_0001.in'
p200
aS'L_brats_tcia_pat255_0001.in'
p201
aS'L_brats_tcia_pat428_0001.in'
p202
aS'L_brats_tcia_pat387_0001.in'
p203
aS'L_brats_tcia_pat249_0001.in'
p204
aS'L_brats_tcia_pat449_0001.in'
p205
aS'L_brats_tcia_pat470_0001.in'
p206
aS'L_brats_tcia_pat408_0001.in'
p207
aS'L_brats_2013_pat0011_1.in'
p208
aS'L_brats_tcia_pat351_0001.in'
p209
aS'L_brats_tcia_pat442_0001.in'
p210
aS'L_brats_tcia_pat393_0001.in'
p211
aS'L_brats_tcia_pat103_0001.in'
p212
aS'L_brats_2013_pat0002_1.in'
p213
aS'L_brats_tcia_pat307_0001.in'
p214
aS'L_brats_tcia_pat276_0001.in'
p215
aS'L_brats_tcia_pat490_0001.in'
p216
aS'L_brats_tcia_pat266_0001.in'
p217
aS'L_brats_tcia_pat202_0001.in'
p218
aS'L_brats_2013_pat0006_1.in'
p219
aS'L_brats_tcia_pat483_0001.in'
p220
aS'L_brats_tcia_pat325_0001.in'
p221
aS'L_brats_2013_pat0014_1.in'
p222
aS'L_brats_tcia_pat451_0001.in'
p223
aS'L_brats_tcia_pat177_0001.in'
p224
a.