(lp0
S'L_brats_tcia_pat175_0001.in'
p1
aS'L_brats_tcia_pat408_0001.in'
p2
aS'H_brats_tcia_pat338_0001.in'
p3
aS'L_brats_tcia_pat449_0001.in'
p4
aS'H_brats_tcia_pat378_0001.in'
p5
aS'H_brats_tcia_pat230_0199.in'
p6
aS'H_brats_tcia_pat277_0001.in'
p7
aS'L_brats_tcia_pat282_0001.in'
p8
aS'L_brats_tcia_pat202_0001.in'
p9
aS'H_brats_tcia_pat171_0387.in'
p10
aS'L_brats_tcia_pat346_0001.in'
p11
aS'L_brats_tcia_pat255_0001.in'
p12
aS'H_brats_tcia_pat390_0001.in'
p13
aS'H_brats_tcia_pat290_0305.in'
p14
aS'H_brats_tcia_pat392_0340.in'
p15
aS'H_brats_tcia_pat167_0001.in'
p16
aS'H_brats_tcia_pat290_0412.in'
p17
aS'H_brats_tcia_pat151_0001.in'
p18
aS'H_brats_tcia_pat399_0217.in'
p19
aS'L_brats_tcia_pat330_0001.in'
p20
aS'L_brats_tcia_pat312_0001.in'
p21
aS'L_brats_tcia_pat298_0001.in'
p22
aS'H_brats_tcia_pat231_0001.in'
p23
aS'H_brats_2013_pat0006_1.in'
p24
aS'H_brats_tcia_pat309_0462.in'
p25
aS'H_brats_tcia_pat370_0383.in'
p26
aS'H_brats_tcia_pat463_0001.in'
p27
aS'H_brats_tcia_pat179_0001.in'
p28
aS'L_brats_tcia_pat493_0001.in'
p29
aS'H_brats_tcia_pat153_0294.in'
p30
aS'H_brats_tcia_pat391_0002.in'
p31
aS'H_brats_2013_pat0004_1.in'
p32
aS'H_brats_tcia_pat447_0313.in'
p33
aS'L_brats_tcia_pat470_0001.in'
p34
aS'H_brats_tcia_pat479_0001.in'
p35
aS'H_brats_tcia_pat374_1627.in'
p36
aS'H_brats_tcia_pat401_0001.in'
p37
aS'H_brats_tcia_pat296_0001.in'
p38
aS'L_brats_tcia_pat451_0001.in'
p39
aS'L_brats_2013_pat0013_1.in'
p40
aS'H_brats_tcia_pat117_0001.in'
p41
aS'L_brats_tcia_pat249_0001.in'
p42
aS'L_brats_tcia_pat130_0001.in'
p43
aS'H_brats_tcia_pat226_0090.in'
p44
aS'L_brats_tcia_pat466_0001.in'
p45
aS'L_brats_tcia_pat413_0001.in'
p46
aS'L_brats_tcia_pat387_0001.in'
p47
aS'H_brats_tcia_pat222_0122.in'
p48
aS'H_brats_tcia_pat290_0669.in'
p49
aS'H_brats_tcia_pat171_0200.in'
p50
aS'L_brats_tcia_pat241_0001.in'
p51
aS'L_brats_2013_pat0002_1.in'
p52
aS'H_brats_tcia_pat278_0001.in'
p53
aS'H_brats_tcia_pat429_0001.in'
p54
aS'H_brats_tcia_pat399_0595.in'
p55
aS'H_brats_tcia_pat412_0001.in'
p56
aS'H_brats_tcia_pat370_0569.in'
p57
aS'H_brats_tcia_pat370_1126.in'
p58
aS'H_brats_tcia_pat230_0511.in'
p59
aS'L_brats_tcia_pat261_0001.in'
p60
aS'L_brats_2013_pat0004_1.in'
p61
aS'L_brats_tcia_pat152_0001.in'
p62
aS'L_brats_2013_pat0001_1.in'
p63
aS'L_brats_tcia_pat420_0001.in'
p64
aS'H_brats_tcia_pat121_0001.in'
p65
aS'H_brats_tcia_pat436_0001.in'
p66
aS'H_brats_2013_pat0025_1.in'
p67
aS'L_brats_tcia_pat299_0001.in'
p68
aS'L_brats_2013_pat0011_1.in'
p69
aS'L_brats_tcia_pat402_0001.in'
p70
aS'H_brats_tcia_pat491_0001.in'
p71
aS'L_brats_tcia_pat254_0001.in'
p72
aS'L_brats_2013_pat0015_1.in'
p73
aS'H_brats_tcia_pat314_0016.in'
p74
aS'H_brats_tcia_pat186_0001.in'
p75
aS'L_brats_tcia_pat428_0001.in'
p76
aS'H_brats_tcia_pat153_0277.in'
p77
aS'H_brats_2013_pat0005_1.in'
p78
aS'L_brats_tcia_pat276_0001.in'
p79
aS'H_brats_2013_pat0011_1.in'
p80
aS'H_brats_tcia_pat473_0001.in'
p81
aS'L_brats_tcia_pat393_0001.in'
p82
aS'H_brats_tcia_pat260_0075.in'
p83
aS'L_brats_tcia_pat325_0001.in'
p84
aS'H_brats_tcia_pat499_0001.in'
p85
aS'H_brats_tcia_pat370_1354.in'
p86
aS'L_brats_tcia_pat483_0001.in'
p87
aS'L_brats_2013_pat0006_1.in'
p88
aS'H_brats_tcia_pat260_0244.in'
p89
aS'H_brats_tcia_pat111_0001.in'
p90
aS'H_brats_tcia_pat417_0001.in'
p91
aS'H_brats_tcia_pat153_0181.in'
p92
aS'H_brats_tcia_pat120_0001.in'
p93
aS'H_brats_tcia_pat149_0001.in'
p94
aS'H_brats_tcia_pat208_0001.in'
p95
aS'H_brats_tcia_pat425_0001.in'
p96
aS'H_brats_tcia_pat319_0001.in'
p97
aS'L_brats_tcia_pat307_0001.in'
p98
aS'H_brats_tcia_pat322_0001.in'
p99
aS'L_brats_2013_pat0014_1.in'
p100
aS'H_brats_tcia_pat331_0001.in'
p101
aS'L_brats_tcia_pat354_0001.in'
p102
aS'L_brats_tcia_pat141_0001.in'
p103
aS'H_brats_tcia_pat332_0001.in'
p104
aS'L_brats_2013_pat0012_1.in'
p105
aS'L_brats_tcia_pat266_0001.in'
p106
aS'L_brats_tcia_pat462_0001.in'
p107
aS'L_brats_tcia_pat442_0001.in'
p108
a.