(lp0
S'H_brats_tcia_pat478_0001.in'
p1
aS'H_brats_tcia_pat205_0001.in'
p2
aS'L_brats_tcia_pat101_0001.in'
p3
aS'L_brats_tcia_pat408_0001.in'
p4
aS'L_brats_tcia_pat449_0001.in'
p5
aS'H_brats_tcia_pat417_0019.in'
p6
aS'H_brats_tcia_pat230_0199.in'
p7
aS'L_brats_tcia_pat103_0001.in'
p8
aS'L_brats_tcia_pat480_0001.in'
p9
aS'L_brats_tcia_pat282_0001.in'
p10
aS'H_brats_tcia_pat165_0001.in'
p11
aS'L_brats_tcia_pat177_0001.in'
p12
aS'L_brats_tcia_pat202_0001.in'
p13
aS'H_brats_tcia_pat171_0387.in'
p14
aS'H_brats_tcia_pat157_0001.in'
p15
aS'L_brats_tcia_pat346_0001.in'
p16
aS'H_brats_tcia_pat437_0001.in'
p17
aS'H_brats_tcia_pat392_0340.in'
p18
aS'H_brats_tcia_pat167_0001.in'
p19
aS'H_brats_tcia_pat211_0001.in'
p20
aS'H_brats_tcia_pat399_0479.in'
p21
aS'L_brats_tcia_pat330_0001.in'
p22
aS'H_brats_tcia_pat258_0001.in'
p23
aS'L_brats_tcia_pat312_0001.in'
p24
aS'L_brats_tcia_pat298_0001.in'
p25
aS'H_brats_tcia_pat173_0001.in'
p26
aS'H_brats_tcia_pat231_0001.in'
p27
aS'H_brats_2013_pat0006_1.in'
p28
aS'H_brats_tcia_pat377_0001.in'
p29
aS'H_brats_tcia_pat396_0117.in'
p30
aS'H_brats_tcia_pat463_0001.in'
p31
aS'H_brats_tcia_pat439_0263.in'
p32
aS'H_brats_tcia_pat179_0001.in'
p33
aS'L_brats_tcia_pat493_0001.in'
p34
aS'H_brats_tcia_pat391_0002.in'
p35
aS'H_brats_tcia_pat153_0002.in'
p36
aS'H_brats_tcia_pat468_0001.in'
p37
aS'H_brats_2013_pat0002_1.in'
p38
aS'L_brats_tcia_pat470_0001.in'
p39
aS'H_brats_tcia_pat247_0001.in'
p40
aS'H_brats_tcia_pat260_0129.in'
p41
aS'H_brats_tcia_pat217_0001.in'
p42
aS'H_brats_tcia_pat201_0001.in'
p43
aS'H_brats_tcia_pat401_0001.in'
p44
aS'H_brats_tcia_pat296_0001.in'
p45
aS'L_brats_tcia_pat451_0001.in'
p46
aS'L_brats_2013_pat0008_1.in'
p47
aS'L_brats_2013_pat0013_1.in'
p48
aS'H_brats_tcia_pat117_0001.in'
p49
aS'L_brats_tcia_pat249_0001.in'
p50
aS'L_brats_tcia_pat130_0001.in'
p51
aS'H_brats_tcia_pat335_0001.in'
p52
aS'H_brats_tcia_pat226_0090.in'
p53
aS'L_brats_tcia_pat466_0001.in'
p54
aS'H_brats_2013_pat0009_1.in'
p55
aS'L_brats_tcia_pat413_0001.in'
p56
aS'L_brats_tcia_pat387_0001.in'
p57
aS'H_brats_tcia_pat171_0200.in'
p58
aS'L_brats_tcia_pat241_0001.in'
p59
aS'L_brats_2013_pat0002_1.in'
p60
aS'H_brats_tcia_pat429_0001.in'
p61
aS'H_brats_tcia_pat396_0139.in'
p62
aS'H_brats_tcia_pat412_0001.in'
p63
aS'H_brats_tcia_pat370_1126.in'
p64
aS'H_brats_tcia_pat230_0511.in'
p65
aS'L_brats_tcia_pat261_0001.in'
p66
aS'L_brats_tcia_pat351_0001.in'
p67
aS'H_brats_tcia_pat309_0203.in'
p68
aS'L_brats_2013_pat0004_1.in'
p69
aS'H_brats_tcia_pat471_0001.in'
p70
aS'L_brats_tcia_pat152_0001.in'
p71
aS'L_brats_2013_pat0001_1.in'
p72
aS'H_brats_tcia_pat199_0001.in'
p73
aS'L_brats_tcia_pat420_0001.in'
p74
aS'H_brats_tcia_pat180_0001.in'
p75
aS'H_brats_tcia_pat147_0001.in'
p76
aS'H_brats_tcia_pat265_0001.in'
p77
aS'H_brats_2013_pat0025_1.in'
p78
aS'L_brats_tcia_pat299_0001.in'
p79
aS'L_brats_tcia_pat402_0001.in'
p80
aS'L_brats_tcia_pat490_0001.in'
p81
aS'H_brats_tcia_pat257_0001.in'
p82
aS'H_brats_tcia_pat200_0210.in'
p83
aS'L_brats_2013_pat0015_1.in'
p84
aS'H_brats_tcia_pat230_0481.in'
p85
aS'H_brats_tcia_pat406_0001.in'
p86
aS'L_brats_tcia_pat428_0001.in'
p87
aS'H_brats_tcia_pat198_0001.in'
p88
aS'H_brats_tcia_pat469_0001.in'
p89
aS'H_brats_2013_pat0005_1.in'
p90
aS'L_brats_tcia_pat276_0001.in'
p91
aS'H_brats_tcia_pat178_0002.in'
p92
aS'H_brats_tcia_pat374_0801.in'
p93
aS'L_brats_tcia_pat393_0001.in'
p94
aS'L_brats_tcia_pat325_0001.in'
p95
aS'H_brats_tcia_pat274_0001.in'
p96
aS'L_brats_tcia_pat410_0001.in'
p97
aS'H_brats_tcia_pat499_0001.in'
p98
aS'H_brats_tcia_pat396_0176.in'
p99
aS'L_brats_tcia_pat483_0001.in'
p100
aS'L_brats_2013_pat0006_1.in'
p101
aS'H_brats_tcia_pat396_0001.in'
p102
aS'H_brats_tcia_pat260_0244.in'
p103
aS'H_brats_tcia_pat156_0001.in'
p104
aS'H_brats_tcia_pat105_0001.in'
p105
aS'H_brats_tcia_pat374_1165.in'
p106
aS'H_brats_tcia_pat425_0001.in'
p107
aS'H_brats_tcia_pat419_0001.in'
p108
aS'H_brats_tcia_pat396_0294.in'
p109
aS'L_brats_tcia_pat307_0001.in'
p110
aS'L_brats_2013_pat0014_1.in'
p111
aS'H_brats_tcia_pat444_0077.in'
p112
aS'L_brats_tcia_pat354_0001.in'
p113
aS'L_brats_tcia_pat141_0001.in'
p114
aS'H_brats_tcia_pat332_0001.in'
p115
aS'L_brats_tcia_pat109_0001.in'
p116
aS'L_brats_2013_pat0012_1.in'
p117
aS'H_brats_tcia_pat399_0527.in'
p118
aS'L_brats_tcia_pat462_0001.in'
p119
aS'L_brats_tcia_pat442_0001.in'
p120
a.