(lp0
S'L_brats_tcia_pat101_0001.in'
p1
aS'L_brats_tcia_pat175_0001.in'
p2
aS'L_brats_tcia_pat408_0001.in'
p3
aS'H_brats_tcia_pat338_0001.in'
p4
aS'H_brats_tcia_pat417_0019.in'
p5
aS'H_brats_tcia_pat399_0290.in'
p6
aS'L_brats_tcia_pat103_0001.in'
p7
aS'H_brats_tcia_pat290_0580.in'
p8
aS'L_brats_tcia_pat480_0001.in'
p9
aS'L_brats_tcia_pat282_0001.in'
p10
aS'H_brats_tcia_pat222_0304.in'
p11
aS'L_brats_tcia_pat202_0001.in'
p12
aS'H_brats_tcia_pat171_0387.in'
p13
aS'H_brats_tcia_pat157_0001.in'
p14
aS'L_brats_tcia_pat346_0001.in'
p15
aS'H_brats_tcia_pat390_0001.in'
p16
aS'H_brats_tcia_pat392_0340.in'
p17
aS'H_brats_tcia_pat290_0412.in'
p18
aS'H_brats_tcia_pat164_0001.in'
p19
aS'H_brats_tcia_pat211_0001.in'
p20
aS'H_brats_tcia_pat399_0479.in'
p21
aS'H_brats_tcia_pat399_0217.in'
p22
aS'L_brats_tcia_pat330_0001.in'
p23
aS'H_brats_2013_pat0001_1.in'
p24
aS'L_brats_tcia_pat298_0001.in'
p25
aS'H_brats_tcia_pat444_0001.in'
p26
aS'H_brats_tcia_pat309_0462.in'
p27
aS'L_brats_tcia_pat493_0001.in'
p28
aS'H_brats_tcia_pat153_0002.in'
p29
aS'H_brats_2013_pat0002_1.in'
p30
aS'H_brats_tcia_pat309_0120.in'
p31
aS'H_brats_tcia_pat217_0001.in'
p32
aS'H_brats_tcia_pat280_0001.in'
p33
aS'L_brats_tcia_pat451_0001.in'
p34
aS'L_brats_tcia_pat249_0001.in'
p35
aS'H_brats_tcia_pat192_0001.in'
p36
aS'H_brats_tcia_pat343_0001.in'
p37
aS'L_brats_tcia_pat130_0001.in'
p38
aS'H_brats_tcia_pat290_0001.in'
p39
aS'H_brats_tcia_pat226_0090.in'
p40
aS'H_brats_tcia_pat230_0710.in'
p41
aS'H_brats_tcia_pat394_0001.in'
p42
aS'L_brats_tcia_pat466_0001.in'
p43
aS'H_brats_2013_pat0009_1.in'
p44
aS'H_brats_tcia_pat198_0283.in'
p45
aS'H_brats_tcia_pat222_0122.in'
p46
aS'H_brats_tcia_pat171_0200.in'
p47
aS'L_brats_tcia_pat241_0001.in'
p48
aS'H_brats_tcia_pat190_0001.in'
p49
aS'L_brats_2013_pat0002_1.in'
p50
aS'H_brats_tcia_pat278_0001.in'
p51
aS'H_brats_tcia_pat113_0001.in'
p52
aS'H_brats_tcia_pat370_0569.in'
p53
aS'H_brats_tcia_pat230_0511.in'
p54
aS'L_brats_tcia_pat261_0001.in'
p55
aS'L_brats_tcia_pat351_0001.in'
p56
aS'H_brats_tcia_pat309_0203.in'
p57
aS'H_brats_tcia_pat471_0001.in'
p58
aS'H_brats_tcia_pat374_0001.in'
p59
aS'L_brats_tcia_pat152_0001.in'
p60
aS'H_brats_tcia_pat183_0001.in'
p61
aS'L_brats_2013_pat0001_1.in'
p62
aS'L_brats_tcia_pat420_0001.in'
p63
aS'H_brats_tcia_pat153_0109.in'
p64
aS'H_brats_tcia_pat265_0001.in'
p65
aS'H_brats_tcia_pat314_0150.in'
p66
aS'H_brats_tcia_pat221_0001.in'
p67
aS'H_brats_tcia_pat235_0001.in'
p68
aS'H_brats_tcia_pat374_1426.in'
p69
aS'L_brats_2013_pat0011_1.in'
p70
aS'L_brats_tcia_pat402_0001.in'
p71
aS'L_brats_tcia_pat490_0001.in'
p72
aS'H_brats_tcia_pat257_0001.in'
p73
aS'L_brats_tcia_pat254_0001.in'
p74
aS'L_brats_2013_pat0015_1.in'
p75
aS'H_brats_tcia_pat314_0016.in'
p76
aS'H_brats_2013_pat0027_1.in'
p77
aS'H_brats_tcia_pat406_0001.in'
p78
aS'L_brats_tcia_pat428_0001.in'
p79
aS'H_brats_tcia_pat280_0003.in'
p80
aS'H_brats_2013_pat0005_1.in'
p81
aS'L_brats_tcia_pat276_0001.in'
p82
aS'H_brats_tcia_pat260_0001.in'
p83
aS'H_brats_tcia_pat226_0001.in'
p84
aS'H_brats_tcia_pat473_0001.in'
p85
aS'L_brats_tcia_pat393_0001.in'
p86
aS'L_brats_tcia_pat325_0001.in'
p87
aS'H_brats_tcia_pat274_0001.in'
p88
aS'L_brats_tcia_pat410_0001.in'
p89
aS'H_brats_tcia_pat396_0176.in'
p90
aS'H_brats_tcia_pat218_0001.in'
p91
aS'H_brats_2013_pat0010_1.in'
p92
aS'L_brats_tcia_pat483_0001.in'
p93
aS'H_brats_tcia_pat396_0001.in'
p94
aS'H_brats_tcia_pat260_0244.in'
p95
aS'H_brats_tcia_pat111_0001.in'
p96
aS'H_brats_2013_pat0022_1.in'
p97
aS'H_brats_tcia_pat430_0001.in'
p98
aS'H_brats_tcia_pat399_0417.in'
p99
aS'H_brats_tcia_pat153_0181.in'
p100
aS'H_brats_tcia_pat283_0001.in'
p101
aS'H_brats_tcia_pat374_1165.in'
p102
aS'H_brats_tcia_pat208_0001.in'
p103
aS'H_brats_tcia_pat193_0002.in'
p104
aS'H_brats_tcia_pat131_0001.in'
p105
aS'H_brats_tcia_pat396_0294.in'
p106
aS'H_brats_tcia_pat328_0001.in'
p107
aS'L_brats_2013_pat0014_1.in'
p108
aS'H_brats_tcia_pat331_0001.in'
p109
aS'L_brats_tcia_pat354_0001.in'
p110
aS'L_brats_tcia_pat141_0001.in'
p111
aS'H_brats_tcia_pat332_0001.in'
p112
aS'L_brats_tcia_pat109_0001.in'
p113
aS'L_brats_tcia_pat462_0001.in'
p114
a.