(lp0
S'H_brats_tcia_pat478_0001.in'
p1
aS'H_brats_tcia_pat205_0001.in'
p2
aS'L_brats_tcia_pat101_0001.in'
p3
aS'L_brats_tcia_pat175_0001.in'
p4
aS'L_brats_tcia_pat408_0001.in'
p5
aS'H_brats_tcia_pat338_0001.in'
p6
aS'L_brats_tcia_pat449_0001.in'
p7
aS'H_brats_tcia_pat417_0019.in'
p8
aS'H_brats_tcia_pat378_0001.in'
p9
aS'H_brats_tcia_pat399_0290.in'
p10
aS'H_brats_tcia_pat424_0001.in'
p11
aS'L_brats_tcia_pat480_0001.in'
p12
aS'H_brats_tcia_pat165_0001.in'
p13
aS'L_brats_tcia_pat177_0001.in'
p14
aS'L_brats_tcia_pat202_0001.in'
p15
aS'H_brats_2013_pat0012_1.in'
p16
aS'H_brats_tcia_pat157_0001.in'
p17
aS'L_brats_tcia_pat346_0001.in'
p18
aS'L_brats_tcia_pat255_0001.in'
p19
aS'H_brats_tcia_pat437_0001.in'
p20
aS'H_brats_tcia_pat399_0156.in'
p21
aS'H_brats_tcia_pat151_0001.in'
p22
aS'H_brats_tcia_pat399_0217.in'
p23
aS'L_brats_tcia_pat330_0001.in'
p24
aS'L_brats_tcia_pat312_0001.in'
p25
aS'H_brats_2013_pat0014_1.in'
p26
aS'H_brats_tcia_pat173_0001.in'
p27
aS'H_brats_tcia_pat309_0462.in'
p28
aS'H_brats_tcia_pat377_0001.in'
p29
aS'H_brats_tcia_pat448_0001.in'
p30
aS'H_brats_tcia_pat361_0001.in'
p31
aS'H_brats_tcia_pat171_0950.in'
p32
aS'H_brats_tcia_pat396_0117.in'
p33
aS'H_brats_tcia_pat370_0383.in'
p34
aS'H_brats_tcia_pat439_0263.in'
p35
aS'H_brats_tcia_pat396_0217.in'
p36
aS'H_brats_tcia_pat153_0165.in'
p37
aS'L_brats_tcia_pat493_0001.in'
p38
aS'H_brats_tcia_pat375_0001.in'
p39
aS'H_brats_2013_pat0004_1.in'
p40
aS'H_brats_2013_pat0013_1.in'
p41
aS'H_brats_tcia_pat498_0001.in'
p42
aS'H_brats_2013_pat0002_1.in'
p43
aS'L_brats_tcia_pat470_0001.in'
p44
aS'H_brats_tcia_pat401_0001.in'
p45
aS'H_brats_tcia_pat439_0001.in'
p46
aS'L_brats_tcia_pat451_0001.in'
p47
aS'L_brats_2013_pat0008_1.in'
p48
aS'L_brats_2013_pat0013_1.in'
p49
aS'L_brats_tcia_pat249_0001.in'
p50
aS'H_brats_tcia_pat439_0333.in'
p51
aS'H_brats_tcia_pat335_0001.in'
p52
aS'H_brats_tcia_pat444_0033.in'
p53
aS'H_brats_tcia_pat374_0557.in'
p54
aS'L_brats_tcia_pat466_0001.in'
p55
aS'L_brats_tcia_pat413_0001.in'
p56
aS'L_brats_tcia_pat241_0001.in'
p57
aS'L_brats_2013_pat0002_1.in'
p58
aS'H_brats_tcia_pat474_0001.in'
p59
aS'H_brats_tcia_pat370_1126.in'
p60
aS'H_brats_tcia_pat230_0511.in'
p61
aS'L_brats_tcia_pat261_0001.in'
p62
aS'H_brats_tcia_pat439_0360.in'
p63
aS'L_brats_tcia_pat351_0001.in'
p64
aS'L_brats_2013_pat0004_1.in'
p65
aS'H_brats_tcia_pat471_0001.in'
p66
aS'H_brats_tcia_pat374_0001.in'
p67
aS'L_brats_tcia_pat152_0001.in'
p68
aS'H_brats_tcia_pat183_0001.in'
p69
aS'L_brats_2013_pat0001_1.in'
p70
aS'L_brats_tcia_pat420_0001.in'
p71
aS'H_brats_tcia_pat436_0001.in'
p72
aS'H_brats_tcia_pat260_0152.in'
p73
aS'L_brats_tcia_pat299_0001.in'
p74
aS'H_brats_tcia_pat404_0001.in'
p75
aS'L_brats_2013_pat0011_1.in'
p76
aS'L_brats_tcia_pat402_0001.in'
p77
aS'L_brats_tcia_pat490_0001.in'
p78
aS'H_brats_tcia_pat491_0001.in'
p79
aS'H_brats_tcia_pat200_0210.in'
p80
aS'L_brats_tcia_pat254_0001.in'
p81
aS'L_brats_2013_pat0015_1.in'
p82
aS'L_brats_tcia_pat428_0001.in'
p83
aS'H_brats_tcia_pat153_0277.in'
p84
aS'H_brats_tcia_pat280_0003.in'
p85
aS'H_brats_tcia_pat198_0001.in'
p86
aS'H_brats_2013_pat0005_1.in'
p87
aS'H_brats_2013_pat0007_1.in'
p88
aS'L_brats_tcia_pat276_0001.in'
p89
aS'L_brats_tcia_pat393_0001.in'
p90
aS'L_brats_tcia_pat325_0001.in'
p91
aS'H_brats_tcia_pat274_0001.in'
p92
aS'L_brats_tcia_pat410_0001.in'
p93
aS'L_brats_tcia_pat483_0001.in'
p94
aS'L_brats_2013_pat0006_1.in'
p95
aS'H_brats_tcia_pat260_0244.in'
p96
aS'H_brats_tcia_pat417_0001.in'
p97
aS'H_brats_tcia_pat430_0001.in'
p98
aS'H_brats_tcia_pat208_0001.in'
p99
aS'H_brats_tcia_pat131_0001.in'
p100
aS'H_brats_tcia_pat319_0001.in'
p101
aS'H_brats_tcia_pat133_0001.in'
p102
aS'H_brats_tcia_pat328_0001.in'
p103
aS'L_brats_tcia_pat307_0001.in'
p104
aS'H_brats_tcia_pat322_0001.in'
p105
aS'H_brats_tcia_pat444_0077.in'
p106
aS'L_brats_tcia_pat354_0001.in'
p107
aS'L_brats_tcia_pat141_0001.in'
p108
aS'L_brats_tcia_pat109_0001.in'
p109
aS'L_brats_2013_pat0012_1.in'
p110
aS'L_brats_tcia_pat266_0001.in'
p111
aS'L_brats_tcia_pat442_0001.in'
p112
a.