(lp0
S'H_brats_tcia_pat205_0001.in'
p1
aS'L_brats_tcia_pat175_0001.in'
p2
aS'L_brats_tcia_pat408_0001.in'
p3
aS'H_brats_tcia_pat338_0001.in'
p4
aS'L_brats_tcia_pat449_0001.in'
p5
aS'H_brats_tcia_pat378_0001.in'
p6
aS'H_brats_tcia_pat230_0199.in'
p7
aS'H_brats_tcia_pat399_0290.in'
p8
aS'L_brats_tcia_pat480_0001.in'
p9
aS'L_brats_tcia_pat282_0001.in'
p10
aS'L_brats_tcia_pat177_0001.in'
p11
aS'H_brats_tcia_pat171_0780.in'
p12
aS'L_brats_tcia_pat202_0001.in'
p13
aS'L_brats_tcia_pat346_0001.in'
p14
aS'L_brats_tcia_pat255_0001.in'
p15
aS'H_brats_tcia_pat150_0001.in'
p16
aS'H_brats_tcia_pat211_0001.in'
p17
aS'H_brats_tcia_pat399_0217.in'
p18
aS'L_brats_tcia_pat330_0001.in'
p19
aS'H_brats_tcia_pat260_0317.in'
p20
aS'L_brats_tcia_pat312_0001.in'
p21
aS'H_brats_2013_pat0001_1.in'
p22
aS'H_brats_2013_pat0014_1.in'
p23
aS'L_brats_tcia_pat298_0001.in'
p24
aS'H_brats_tcia_pat377_0001.in'
p25
aS'H_brats_tcia_pat463_0001.in'
p26
aS'L_brats_tcia_pat493_0001.in'
p27
aS'H_brats_tcia_pat375_0001.in'
p28
aS'H_brats_2013_pat0004_1.in'
p29
aS'H_brats_tcia_pat447_0313.in'
p30
aS'L_brats_tcia_pat470_0001.in'
p31
aS'H_brats_tcia_pat247_0001.in'
p32
aS'H_brats_tcia_pat260_0129.in'
p33
aS'H_brats_tcia_pat201_0001.in'
p34
aS'H_brats_tcia_pat401_0001.in'
p35
aS'H_brats_tcia_pat280_0001.in'
p36
aS'L_brats_tcia_pat451_0001.in'
p37
aS'L_brats_2013_pat0008_1.in'
p38
aS'L_brats_2013_pat0013_1.in'
p39
aS'H_brats_tcia_pat117_0001.in'
p40
aS'H_brats_tcia_pat455_0001.in'
p41
aS'L_brats_tcia_pat249_0001.in'
p42
aS'H_brats_tcia_pat171_0618.in'
p43
aS'L_brats_tcia_pat130_0001.in'
p44
aS'H_brats_tcia_pat226_0090.in'
p45
aS'H_brats_tcia_pat394_0001.in'
p46
aS'H_brats_tcia_pat171_1231.in'
p47
aS'L_brats_tcia_pat466_0001.in'
p48
aS'L_brats_tcia_pat413_0001.in'
p49
aS'H_brats_tcia_pat171_0200.in'
p50
aS'L_brats_tcia_pat241_0001.in'
p51
aS'L_brats_2013_pat0002_1.in'
p52
aS'H_brats_tcia_pat113_0001.in'
p53
aS'H_brats_tcia_pat411_0001.in'
p54
aS'H_brats_tcia_pat396_0139.in'
p55
aS'L_brats_tcia_pat261_0001.in'
p56
aS'H_brats_tcia_pat439_0360.in'
p57
aS'L_brats_tcia_pat351_0001.in'
p58
aS'L_brats_2013_pat0004_1.in'
p59
aS'H_brats_tcia_pat234_0001.in'
p60
aS'L_brats_tcia_pat152_0001.in'
p61
aS'L_brats_2013_pat0001_1.in'
p62
aS'H_brats_tcia_pat199_0001.in'
p63
aS'L_brats_tcia_pat420_0001.in'
p64
aS'H_brats_2013_pat0008_1.in'
p65
aS'H_brats_tcia_pat260_0152.in'
p66
aS'L_brats_2013_pat0011_1.in'
p67
aS'H_brats_tcia_pat374_0356.in'
p68
aS'L_brats_tcia_pat490_0001.in'
p69
aS'H_brats_tcia_pat257_0001.in'
p70
aS'L_brats_tcia_pat254_0001.in'
p71
aS'L_brats_2013_pat0015_1.in'
p72
aS'H_brats_tcia_pat230_0481.in'
p73
aS'L_brats_tcia_pat428_0001.in'
p74
aS'H_brats_tcia_pat198_0001.in'
p75
aS'H_brats_tcia_pat469_0001.in'
p76
aS'H_brats_2013_pat0005_1.in'
p77
aS'H_brats_2013_pat0007_1.in'
p78
aS'L_brats_tcia_pat276_0001.in'
p79
aS'H_brats_tcia_pat309_0243.in'
p80
aS'H_brats_tcia_pat260_0001.in'
p81
aS'H_brats_tcia_pat226_0001.in'
p82
aS'L_brats_tcia_pat393_0001.in'
p83
aS'L_brats_tcia_pat325_0001.in'
p84
aS'H_brats_tcia_pat370_0907.in'
p85
aS'H_brats_tcia_pat230_0637.in'
p86
aS'L_brats_tcia_pat483_0001.in'
p87
aS'L_brats_2013_pat0006_1.in'
p88
aS'H_brats_tcia_pat396_0001.in'
p89
aS'H_brats_tcia_pat432_0001.in'
p90
aS'H_brats_2013_pat0022_1.in'
p91
aS'H_brats_tcia_pat399_0417.in'
p92
aS'H_brats_tcia_pat105_0001.in'
p93
aS'H_brats_tcia_pat149_0001.in'
p94
aS'H_brats_tcia_pat319_0001.in'
p95
aS'H_brats_tcia_pat328_0001.in'
p96
aS'L_brats_tcia_pat307_0001.in'
p97
aS'L_brats_2013_pat0014_1.in'
p98
aS'H_brats_tcia_pat331_0001.in'
p99
aS'L_brats_tcia_pat354_0001.in'
p100
aS'L_brats_tcia_pat141_0001.in'
p101
aS'H_brats_tcia_pat332_0001.in'
p102
aS'H_brats_tcia_pat444_0038.in'
p103
aS'H_brats_tcia_pat370_1470.in'
p104
aS'L_brats_2013_pat0012_1.in'
p105
aS'H_brats_tcia_pat162_0001.in'
p106
aS'L_brats_tcia_pat266_0001.in'
p107
aS'L_brats_tcia_pat442_0001.in'
p108
a.