(lp0
S'H_brats_tcia_pat118_0001.in'
p1
aS'L_brats_tcia_pat101_0001.in'
p2
aS'L_brats_tcia_pat175_0001.in'
p3
aS'L_brats_tcia_pat408_0001.in'
p4
aS'H_brats_tcia_pat138_0001.in'
p5
aS'H_brats_tcia_pat277_0001.in'
p6
aS'L_brats_tcia_pat103_0001.in'
p7
aS'L_brats_tcia_pat480_0001.in'
p8
aS'L_brats_tcia_pat282_0001.in'
p9
aS'H_brats_tcia_pat165_0001.in'
p10
aS'L_brats_tcia_pat177_0001.in'
p11
aS'H_brats_tcia_pat222_0304.in'
p12
aS'L_brats_tcia_pat202_0001.in'
p13
aS'H_brats_tcia_pat447_0122.in'
p14
aS'L_brats_tcia_pat346_0001.in'
p15
aS'L_brats_tcia_pat255_0001.in'
p16
aS'H_brats_tcia_pat437_0001.in'
p17
aS'H_brats_tcia_pat290_0305.in'
p18
aS'H_brats_tcia_pat392_0340.in'
p19
aS'H_brats_tcia_pat167_0001.in'
p20
aS'H_brats_tcia_pat399_0156.in'
p21
aS'H_brats_tcia_pat164_0001.in'
p22
aS'H_brats_tcia_pat399_0479.in'
p23
aS'H_brats_tcia_pat260_0317.in'
p24
aS'L_brats_tcia_pat312_0001.in'
p25
aS'L_brats_tcia_pat298_0001.in'
p26
aS'H_brats_tcia_pat231_0001.in'
p27
aS'H_brats_tcia_pat444_0001.in'
p28
aS'H_brats_tcia_pat309_0462.in'
p29
aS'H_brats_tcia_pat361_0001.in'
p30
aS'H_brats_tcia_pat396_0117.in'
p31
aS'H_brats_tcia_pat370_0383.in'
p32
aS'H_brats_tcia_pat463_0001.in'
p33
aS'L_brats_tcia_pat493_0001.in'
p34
aS'H_brats_tcia_pat153_0002.in'
p35
aS'H_brats_tcia_pat374_0909.in'
p36
aS'H_brats_2013_pat0004_1.in'
p37
aS'H_brats_tcia_pat479_0001.in'
p38
aS'L_brats_2013_pat0008_1.in'
p39
aS'L_brats_2013_pat0013_1.in'
p40
aS'H_brats_tcia_pat192_0001.in'
p41
aS'H_brats_tcia_pat290_0001.in'
p42
aS'H_brats_tcia_pat394_0001.in'
p43
aS'L_brats_tcia_pat466_0001.in'
p44
aS'L_brats_tcia_pat387_0001.in'
p45
aS'H_brats_tcia_pat198_0283.in'
p46
aS'H_brats_tcia_pat314_0001.in'
p47
aS'L_brats_tcia_pat241_0001.in'
p48
aS'L_brats_2013_pat0002_1.in'
p49
aS'H_brats_tcia_pat309_0320.in'
p50
aS'H_brats_tcia_pat370_0569.in'
p51
aS'L_brats_tcia_pat261_0001.in'
p52
aS'H_brats_tcia_pat309_0001.in'
p53
aS'H_brats_tcia_pat309_0203.in'
p54
aS'L_brats_2013_pat0004_1.in'
p55
aS'H_brats_tcia_pat471_0001.in'
p56
aS'L_brats_tcia_pat152_0001.in'
p57
aS'L_brats_2013_pat0001_1.in'
p58
aS'H_brats_tcia_pat199_0001.in'
p59
aS'L_brats_tcia_pat420_0001.in'
p60
aS'H_brats_tcia_pat265_0001.in'
p61
aS'H_brats_tcia_pat314_0150.in'
p62
aS'H_brats_tcia_pat121_0001.in'
p63
aS'H_brats_2013_pat0025_1.in'
p64
aS'H_brats_tcia_pat235_0001.in'
p65
aS'L_brats_2013_pat0011_1.in'
p66
aS'H_brats_tcia_pat374_0356.in'
p67
aS'H_brats_tcia_pat257_0001.in'
p68
aS'H_brats_tcia_pat200_0210.in'
p69
aS'H_brats_tcia_pat300_0001.in'
p70
aS'L_brats_2013_pat0015_1.in'
p71
aS'H_brats_tcia_pat186_0001.in'
p72
aS'L_brats_tcia_pat428_0001.in'
p73
aS'H_brats_tcia_pat153_0277.in'
p74
aS'H_brats_2013_pat0026_1.in'
p75
aS'H_brats_tcia_pat399_0815.in'
p76
aS'H_brats_2013_pat0005_1.in'
p77
aS'H_brats_tcia_pat178_0002.in'
p78
aS'L_brats_tcia_pat393_0001.in'
p79
aS'L_brats_tcia_pat325_0001.in'
p80
aS'L_brats_tcia_pat410_0001.in'
p81
aS'H_brats_tcia_pat370_1354.in'
p82
aS'H_brats_2013_pat0010_1.in'
p83
aS'L_brats_tcia_pat483_0001.in'
p84
aS'L_brats_2013_pat0006_1.in'
p85
aS'H_brats_tcia_pat111_0001.in'
p86
aS'H_brats_tcia_pat156_0001.in'
p87
aS'H_brats_tcia_pat417_0001.in'
p88
aS'H_brats_tcia_pat399_0417.in'
p89
aS'H_brats_tcia_pat120_0001.in'
p90
aS'L_brats_tcia_pat307_0001.in'
p91
aS'H_brats_tcia_pat460_0001.in'
p92
aS'L_brats_2013_pat0014_1.in'
p93
aS'H_brats_tcia_pat331_0001.in'
p94
aS'L_brats_tcia_pat354_0001.in'
p95
aS'L_brats_tcia_pat141_0001.in'
p96
aS'H_brats_tcia_pat332_0001.in'
p97
aS'H_brats_tcia_pat444_0038.in'
p98
aS'H_brats_tcia_pat370_1470.in'
p99
aS'H_brats_2013_pat0003_1.in'
p100
aS'H_brats_tcia_pat399_0527.in'
p101
aS'H_brats_tcia_pat162_0001.in'
p102
aS'L_brats_tcia_pat266_0001.in'
p103
aS'L_brats_tcia_pat462_0001.in'
p104
aS'L_brats_tcia_pat442_0001.in'
p105
a.